MPASM 5.77                          MAIN.ASM   7-12-2023  18:47:12         PAGE  1


LOC  OBJECT CODE     LINE SOURCE TEXT
  VALUE

Warning[205]: Found directive in column 1. (LIST)
                      00001 LIST P=PIC16F1938
                      00002 #include<p16f1938.inc>
                      00001         LIST
                      00002 
                      00003 ;==========================================================================
                      00004 ; Build date : Nov 22 2017
                      00005 ;  MPASM PIC16F1938 processor include
                      00006 ; 
                      00007 ;  (c) Copyright 1999-2017 Microchip Technology, All rights reserved
                      00008 ;==========================================================================
                      00009 
                      01418         LIST
Warning[205]: Found directive in column 1. (__CONFIG)
8007   0984           00003 __CONFIG    _CONFIG1, _FOSC_INTOSC & _WDTE_OFF & _PWRTE_ON & _MCLRE_OFF & _CP_OFF & _CPD_OFF & _BOREN_OF
                            F & _CLKOUTEN_OFF & _IESO_OFF & _FCMEN_OFF  
Warning[205]: Found directive in column 1. (__CONFIG)
8008   3CFF           00004 __CONFIG    _CONFIG2, _WRT_OFF & _VCAPEN_OFF & _PLLEN_OFF & _STVREN_OFF & _BORV_LO & _LVP_ON
                      00005 
  00000020            00006 MATRIX_ROW_0    EQU 0x20
  00000021            00007 MATRIX_ROW_1    EQU 0x21
  00000022            00008 MATRIX_ROW_2    EQU 0x22
  00000023            00009 MATRIX_ROW_3    EQU 0x23
  00000024            00010 MATRIX_ROW_4    EQU 0x24
  00000025            00011 MATRIX_ROW_5    EQU 0x25
  00000026            00012 MATRIX_ROW_6    EQU 0x26
  00000027            00013 MATRIX_ROW_7    EQU 0x27
  00000028            00014 DELAY_CNT0      EQU 0x28
  00000029            00015 DELAY_CNT1      EQU 0x29
                      00016 
                      00017 ;ORG    0x1000
                      00018 ;       DATA    0x00, 0x01
                      00019         
Warning[205]: Found directive in column 1. (ORG)
                      00020 ORG     0x0000                          
                      00021         ;バンク1に切り替え
0000   1408           00022         BSF     BSR, BSR0
                      00023         ;;OSCCONレジスタを操作して、周期を4MHzに変更する
0001   3068           00024         MOVLW   B'01101000'
Message[302]: Register in operand not in bank 0.  Ensure that bank bits are correct.
0002   0099           00025         MOVWF   OSCCON
                      00026         ;PORTBを出力にする
0003   3000           00027         MOVLW   B'00000000'
Message[302]: Register in operand not in bank 0.  Ensure that bank bits are correct.
0004   008D           00028         MOVWF   TRISB
                      00029         ;PORTCを出力にする
0005   3000           00030         MOVLW   B'00000000'
Message[302]: Register in operand not in bank 0.  Ensure that bank bits are correct.
0006   008E           00031         MOVWF   TRISC
                      00032         ;バンク0に切り替え
0007   1008           00033         BCF     BSR, BSR0
                      00034         ;PORTBとPORTCの出力を0にする
0008   3000           00035         MOVLW   B'00000000'
MPASM 5.77                          MAIN.ASM   7-12-2023  18:47:12         PAGE  2


LOC  OBJECT CODE     LINE SOURCE TEXT
  VALUE

0009   008D           00036         MOVWF   PORTB
000A   3000           00037         MOVLW   B'00000000'
000B   008E           00038         MOVWF   PORTC
000C                  00039 LOOP                                    
000C   2???           00040         CALL    TEST
000D   2???           00041         GOTO    LOOP                    
                      00042 
000E                  00043 TEST
                      00044 ;       MOVLW   B'11111111'
                      00045 ;       MOVWF   PORTC
                      00046 ;       MOVLW   B'01111111'
                      00047 ;       MOVWF   PORTB
                      00048 ;       CALL    LED_DELAY
000E   3080           00049         MOVLW   B'10000000'
000F   00A0           00050         MOVWF   MATRIX_ROW_0
0010   3040           00051         MOVLW   B'01000000'
0011   00A1           00052         MOVWF   MATRIX_ROW_1
0012   3020           00053         MOVLW   B'00100000'
0013   00A2           00054         MOVWF   MATRIX_ROW_2
0014   3010           00055         MOVLW   B'00010000'
0015   00A3           00056         MOVWF   MATRIX_ROW_3
0016   3008           00057         MOVLW   B'00001000'
0017   00A4           00058         MOVWF   MATRIX_ROW_4
0018   3004           00059         MOVLW   B'00000100'
0019   00A5           00060         MOVWF   MATRIX_ROW_5
001A   3002           00061         MOVLW   B'00000010'
001B   00A6           00062         MOVWF   MATRIX_ROW_6
001C   3002           00063         MOVLW   B'00000010'
001D   00A7           00064         MOVWF   MATRIX_ROW_7
001E   2???           00065         CALL    LIGHT_MATRIX
001F   0008           00066         RETURN
                      00067 
0020                  00068 TEST_ANIMATION
                      00069         
                      00070         
0020                  00071 LIGHT_MATRIX
                      00072         ;0行目
0020   0820           00073         MOVF    MATRIX_ROW_0, W
0021   008E           00074         MOVWF   PORTC
0022   307F           00075         MOVLW   B'01111111'
0023   008D           00076         MOVWF   PORTB
0024   2???           00077         CALL    LED_DELAY
                      00078         ;1行目
0025   0821           00079         MOVF    MATRIX_ROW_1, W
0026   008E           00080         MOVWF   PORTC
0027   30BF           00081         MOVLW   B'10111111'
0028   008D           00082         MOVWF   PORTB
0029   2???           00083         CALL    LED_DELAY
                      00084         ;2行目
002A   0822           00085         MOVF    MATRIX_ROW_2, W
002B   008E           00086         MOVWF   PORTC
002C   30DF           00087         MOVLW   B'11011111'
002D   008D           00088         MOVWF   PORTB
MPASM 5.77                          MAIN.ASM   7-12-2023  18:47:12         PAGE  3


LOC  OBJECT CODE     LINE SOURCE TEXT
  VALUE

002E   2???           00089         CALL    LED_DELAY
                      00090         ;3行目
002F   0823           00091         MOVF    MATRIX_ROW_3, W
0030   008E           00092         MOVWF   PORTC
0031   30EF           00093         MOVLW   B'11101111'
0032   008D           00094         MOVWF   PORTB
0033   2???           00095         CALL    LED_DELAY
                      00096         ;4行目
0034   0824           00097         MOVF    MATRIX_ROW_4, W
0035   008E           00098         MOVWF   PORTC
0036   30F7           00099         MOVLW   B'11110111'
0037   008D           00100         MOVWF   PORTB
0038   2???           00101         CALL    LED_DELAY
                      00102         ;5行目
0039   0825           00103         MOVF    MATRIX_ROW_5, W
003A   008E           00104         MOVWF   PORTC
003B   30FB           00105         MOVLW   B'11111011'
003C   008D           00106         MOVWF   PORTB
003D   2???           00107         CALL    LED_DELAY
                      00108         ;6行目
003E   0826           00109         MOVF    MATRIX_ROW_6, W
003F   008E           00110         MOVWF   PORTC
0040   30FD           00111         MOVLW   B'11111101'
0041   008D           00112         MOVWF   PORTB
0042   2???           00113         CALL    LED_DELAY
                      00114         ;7行目
0043   0827           00115         MOVF    MATRIX_ROW_7, W
0044   008E           00116         MOVWF   PORTC
0045   307E           00117         MOVLW   B'01111110'
0046   008D           00118         MOVWF   PORTB
0047   2???           00119         CALL    LED_DELAY
0048   0008           00120         RETURN
                      00121         
0049                  00122 LED_DELAY
0049   3000           00123         MOVLW   0x00
004A   00A8           00124         MOVWF   DELAY_CNT0
004B                  00125 LED_DELAY_JUMP0
004B   3001           00126         MOVLW   0x01
004C   00A9           00127         MOVWF   DELAY_CNT1
004D                  00128 LED_DELAY_JUMP1
004D   0BA8           00129         DECFSZ  DELAY_CNT0, F
004E   2???           00130         GOTO    LED_DELAY_JUMP1
004F   0BA9           00131         DECFSZ  DELAY_CNT1, F
0050   2???           00132         GOTO    LED_DELAY_JUMP0
0051   0008           00133         RETURN
Warning[205]: Found directive in column 1. (END)
0984 3CFF             00134 END
MPASM 5.77                          MAIN.ASM   7-12-2023  18:47:12         PAGE  4


SYMBOL TABLE
  LABEL                             VALUE 

ABDEN                             00000000
ABDOVF                            00000007
ACKDT                             00000005
ACKEN                             00000004
ACKSTAT                           00000006
ACKTIM                            00000007
ADCON0                            0000009D
ADCON1                            0000009E
ADCS0                             00000004
ADCS1                             00000005
ADCS2                             00000006
ADDEN                             00000003
ADFM                              00000007
ADFVR0                            00000000
ADFVR1                            00000001
ADGO                              00000001
ADIE                              00000006
ADIF                              00000006
ADNREF                            00000002
ADON                              00000000
ADPREF0                           00000000
ADPREF1                           00000001
ADRES                             0000009B
ADRESH                            0000009C
ADRESL                            0000009B
AHEN                              00000001
ANSA0                             00000000
ANSA1                             00000001
ANSA2                             00000002
ANSA3                             00000003
ANSA4                             00000004
ANSA5                             00000005
ANSB0                             00000000
ANSB1                             00000001
ANSB2                             00000002
ANSB3                             00000003
ANSB4                             00000004
ANSB5                             00000005
ANSELA                            0000018C
ANSELB                            0000018D
APFCON                            0000011D
BAUDCON                           0000019F
BCLIE                             00000003
BCLIF                             00000003
BF                                00000000
BIASMD                            00000006
BOEN                              00000004
BORCON                            00000116
BORRDY                            00000000
BRG16                             00000003
BRGH                              00000002
BSR                               00000008
BSR0                              00000000
MPASM 5.77                          MAIN.ASM   7-12-2023  18:47:12         PAGE  5


SYMBOL TABLE
  LABEL                             VALUE 

BSR1                              00000001
BSR2                              00000002
BSR3                              00000003
BSR4                              00000004
BSR_SHAD                          00000FE6
C                                 00000000
C1HYS                             00000001
C1IE                              00000005
C1IF                              00000005
C1INTN                            00000006
C1INTP                            00000007
C1NCH0                            00000000
C1NCH1                            00000001
C1OE                              00000005
C1ON                              00000007
C1OUT                             00000006
C1PCH0                            00000004
C1PCH1                            00000005
C1POL                             00000004
C1SP                              00000002
C1SYNC                            00000000
C1TSEL0                           00000000
C1TSEL1                           00000001
C2HYS                             00000001
C2IE                              00000006
C2IF                              00000006
C2INTN                            00000006
C2INTP                            00000007
C2NCH0                            00000000
C2NCH1                            00000001
C2OE                              00000005
C2ON                              00000007
C2OUT                             00000006
C2OUTSEL                          00000002
C2PCH0                            00000004
C2PCH1                            00000005
C2POL                             00000004
C2SP                              00000002
C2SYNC                            00000000
C2TSEL0                           00000002
C2TSEL1                           00000003
C3TSEL0                           00000004
C3TSEL1                           00000005
C4TSEL0                           00000006
C4TSEL1                           00000007
C5TSEL0                           00000000
C5TSEL1                           00000001
CCP1AS                            00000295
CCP1AS0                           00000004
CCP1AS1                           00000005
CCP1AS2                           00000006
CCP1ASE                           00000007
CCP1CON                           00000293
MPASM 5.77                          MAIN.ASM   7-12-2023  18:47:12         PAGE  6


SYMBOL TABLE
  LABEL                             VALUE 

CCP1IE                            00000002
CCP1IF                            00000002
CCP1M0                            00000000
CCP1M1                            00000001
CCP1M2                            00000002
CCP1M3                            00000003
CCP2AS                            0000029C
CCP2AS0                           00000004
CCP2AS1                           00000005
CCP2AS2                           00000006
CCP2ASE                           00000007
CCP2CON                           0000029A
CCP2IE                            00000000
CCP2IF                            00000000
CCP2M0                            00000000
CCP2M1                            00000001
CCP2M2                            00000002
CCP2M3                            00000003
CCP2SEL                           00000000
CCP3AS                            00000315
CCP3AS0                           00000004
CCP3AS1                           00000005
CCP3AS2                           00000006
CCP3ASE                           00000007
CCP3CON                           00000313
CCP3IE                            00000004
CCP3IF                            00000004
CCP3M0                            00000000
CCP3M1                            00000001
CCP3M2                            00000002
CCP3M3                            00000003
CCP3SEL                           00000006
CCP4CON                           0000031A
CCP4IE                            00000005
CCP4IF                            00000005
CCP4M0                            00000000
CCP4M1                            00000001
CCP4M2                            00000002
CCP4M3                            00000003
CCP5CON                           0000031E
CCP5IE                            00000006
CCP5IF                            00000006
CCP5M0                            00000000
CCP5M1                            00000001
CCP5M2                            00000002
CCP5M3                            00000003
CCPR1                             00000291
CCPR1H                            00000292
CCPR1L                            00000291
CCPR2                             00000298
CCPR2H                            00000299
CCPR2L                            00000298
CCPR3                             00000311
MPASM 5.77                          MAIN.ASM   7-12-2023  18:47:12         PAGE  7


SYMBOL TABLE
  LABEL                             VALUE 

CCPR3H                            00000312
CCPR3L                            00000311
CCPR4                             00000318
CCPR4H                            00000319
CCPR4L                            00000318
CCPR5                             0000031C
CCPR5H                            0000031D
CCPR5L                            0000031C
CCPTMRS0                          0000029E
CCPTMRS1                          0000029F
CDAFVR0                           00000002
CDAFVR1                           00000003
CFGS                              00000006
CHS0                              00000002
CHS1                              00000003
CHS2                              00000004
CHS3                              00000005
CHS4                              00000006
CKE                               00000006
CKP                               00000004
CM1CON0                           00000111
CM1CON1                           00000112
CM2CON0                           00000113
CM2CON1                           00000114
CMOUT                             00000115
CPSCH0                            00000000
CPSCH1                            00000001
CPSCH2                            00000002
CPSCON0                           0000001E
CPSCON1                           0000001F
CPSON                             00000007
CPSOUT                            00000001
CPSRM                             00000006
CPSRNG0                           00000002
CPSRNG1                           00000003
CREN                              00000004
CS0                               00000002
CS1                               00000003
CSRC                              00000007
C_SHAD                            00000000
DACCON0                           00000118
DACCON1                           00000119
DACEN                             00000007
DACLPS                            00000006
DACNSS                            00000000
DACOE                             00000005
DACPSS0                           00000002
DACPSS1                           00000003
DACR0                             00000000
DACR1                             00000001
DACR2                             00000002
DACR3                             00000003
DACR4                             00000004
MPASM 5.77                          MAIN.ASM   7-12-2023  18:47:12         PAGE  8


SYMBOL TABLE
  LABEL                             VALUE 

DC                                00000001
DC1B0                             00000004
DC1B1                             00000005
DC2B0                             00000004
DC2B1                             00000005
DC3B0                             00000004
DC3B1                             00000005
DC4B0                             00000004
DC4B1                             00000005
DC5B0                             00000004
DC5B1                             00000005
DC_SHAD                           00000001
DELAY_CNT0                        00000028
DELAY_CNT1                        00000029
DHEN                              00000000
D_NOT_A                           00000005
ECCP1AS                           00000295
ECCP2AS                           0000029C
ECCP3AS                           00000315
EEADR                             00000191
EEADRH                            00000192
EEADRL                            00000191
EECON1                            00000195
EECON2                            00000196
EEDAT                             00000193
EEDATH                            00000194
EEDATL                            00000193
EEIE                              00000004
EEIF                              00000004
EEPGD                             00000007
F                                 00000001
FERR                              00000002
FREE                              00000004
FSR0                              00000004
FSR0H                             00000005
FSR0H_SHAD                        00000FE9
FSR0L                             00000004
FSR0L_SHAD                        00000FE8
FSR1                              00000006
FSR1H                             00000007
FSR1H_SHAD                        00000FEB
FSR1L                             00000006
FSR1L_SHAD                        00000FEA
FVRCON                            00000117
FVREN                             00000007
FVRRDY                            00000006
GCEN                              00000007
GIE                               00000007
GO                                00000001
GO_NOT_DONE                       00000001
HFIOFL                            00000003
HFIOFR                            00000004
HFIOFS                            00000000
MPASM 5.77                          MAIN.ASM   7-12-2023  18:47:12         PAGE  9


SYMBOL TABLE
  LABEL                             VALUE 

INDF0                             00000000
INDF1                             00000001
INTCON                            0000000B
INTE                              00000004
INTEDG                            00000006
INTF                              00000001
IOCBF                             00000396
IOCBF0                            00000000
IOCBF1                            00000001
IOCBF2                            00000002
IOCBF3                            00000003
IOCBF4                            00000004
IOCBF5                            00000005
IOCBF6                            00000006
IOCBF7                            00000007
IOCBN                             00000395
IOCBN0                            00000000
IOCBN1                            00000001
IOCBN2                            00000002
IOCBN3                            00000003
IOCBN4                            00000004
IOCBN5                            00000005
IOCBN6                            00000006
IOCBN7                            00000007
IOCBP                             00000394
IOCBP0                            00000000
IOCBP1                            00000001
IOCBP2                            00000002
IOCBP3                            00000003
IOCBP4                            00000004
IOCBP5                            00000005
IOCBP6                            00000006
IOCBP7                            00000007
IOCIE                             00000003
IOCIF                             00000000
IRCF0                             00000003
IRCF1                             00000004
IRCF2                             00000005
IRCF3                             00000006
LATA                              0000010C
LATA0                             00000000
LATA1                             00000001
LATA2                             00000002
LATA3                             00000003
LATA4                             00000004
LATA5                             00000005
LATA6                             00000006
LATA7                             00000007
LATB                              0000010D
LATB0                             00000000
LATB1                             00000001
LATB2                             00000002
LATB3                             00000003
MPASM 5.77                          MAIN.ASM   7-12-2023  18:47:12         PAGE 10


SYMBOL TABLE
  LABEL                             VALUE 

LATB4                             00000004
LATB5                             00000005
LATB6                             00000006
LATB7                             00000007
LATC                              0000010E
LATC0                             00000000
LATC1                             00000001
LATC2                             00000002
LATC3                             00000003
LATC4                             00000004
LATC5                             00000005
LATC6                             00000006
LATC7                             00000007
LATE                              00000110
LATE3                             00000003
LCDA                              00000005
LCDCON                            00000791
LCDCST                            00000794
LCDCST0                           00000000
LCDCST1                           00000001
LCDCST2                           00000002
LCDDATA0                          000007A0
LCDDATA1                          000007A1
LCDDATA10                         000007AA
LCDDATA3                          000007A3
LCDDATA4                          000007A4
LCDDATA6                          000007A6
LCDDATA7                          000007A7
LCDDATA9                          000007A9
LCDEN                             00000007
LCDIE                             00000002
LCDIF                             00000002
LCDIRE                            00000007
LCDIRI                            00000005
LCDIRS                            00000006
LCDPS                             00000792
LCDREF                            00000793
LCDRL                             00000795
LCDSE0                            00000798
LCDSE1                            00000799
LED_DELAY                         00000049
LED_DELAY_JUMP0                   0000004B
LED_DELAY_JUMP1                   0000004D
LFIOFR                            00000001
LIGHT_MATRIX                      00000020
LMUX0                             00000000
LMUX1                             00000001
LOOP                              0000000C
LP0                               00000000
LP1                               00000001
LP2                               00000002
LP3                               00000003
LRLAP0                            00000006
MPASM 5.77                          MAIN.ASM   7-12-2023  18:47:12         PAGE 11


SYMBOL TABLE
  LABEL                             VALUE 

LRLAP1                            00000007
LRLAT0                            00000000
LRLAT1                            00000001
LRLAT2                            00000002
LRLBP0                            00000004
LRLBP1                            00000005
LWLO                              00000005
MATRIX_ROW_0                      00000020
MATRIX_ROW_1                      00000021
MATRIX_ROW_2                      00000022
MATRIX_ROW_3                      00000023
MATRIX_ROW_4                      00000024
MATRIX_ROW_5                      00000025
MATRIX_ROW_6                      00000026
MATRIX_ROW_7                      00000027
MC1OUT                            00000000
MC2OUT                            00000001
MFIOFR                            00000002
NOT_BOR                           00000000
NOT_DONE                          00000001
NOT_PD                            00000003
NOT_POR                           00000001
NOT_RI                            00000002
NOT_RMCLR                         00000003
NOT_T1SYNC                        00000002
NOT_TO                            00000004
NOT_WPUEN                         00000007
OERR                              00000001
OPTION_REG                        00000095
OSCCON                            00000099
OSCSTAT                           0000009A
OSCTUNE                           00000098
OSFIE                             00000007
OSFIF                             00000007
OSTS                              00000005
P                                 00000004
P1DC0                             00000000
P1DC1                             00000001
P1DC2                             00000002
P1DC3                             00000003
P1DC4                             00000004
P1DC5                             00000005
P1DC6                             00000006
P1M0                              00000006
P1M1                              00000007
P1RSEN                            00000007
P2BSEL                            00000004
P2DC0                             00000000
P2DC1                             00000001
P2DC2                             00000002
P2DC3                             00000003
P2DC4                             00000004
P2DC5                             00000005
MPASM 5.77                          MAIN.ASM   7-12-2023  18:47:12         PAGE 12


SYMBOL TABLE
  LABEL                             VALUE 

P2DC6                             00000006
P2M0                              00000006
P2M1                              00000007
P2RSEN                            00000007
P3DC0                             00000000
P3DC1                             00000001
P3DC2                             00000002
P3DC3                             00000003
P3DC4                             00000004
P3DC5                             00000005
P3DC6                             00000006
P3M0                              00000006
P3M1                              00000007
P3RSEN                            00000007
PCIE                              00000006
PCL                               00000002
PCLATH                            0000000A
PCLATH_SHAD                       00000FE7
PCON                              00000096
PEIE                              00000006
PEN                               00000002
PIE1                              00000091
PIE2                              00000092
PIE3                              00000093
PIR1                              00000011
PIR2                              00000012
PIR3                              00000013
PLLR                              00000006
PORTA                             0000000C
PORTB                             0000000D
PORTC                             0000000E
PORTE                             00000010
PR2                               0000001B
PR4                               00000416
PR6                               0000041D
PS0                               00000000
PS1                               00000001
PS2                               00000002
PSA                               00000003
PSS1AC0                           00000002
PSS1AC1                           00000003
PSS1BD0                           00000000
PSS1BD1                           00000001
PSS2AC0                           00000002
PSS2AC1                           00000003
PSS2BD0                           00000000
PSS2BD1                           00000001
PSS3AC0                           00000002
PSS3AC1                           00000003
PSS3BD0                           00000000
PSS3BD1                           00000001
PSTR1CON                          00000296
PSTR2CON                          0000029D
MPASM 5.77                          MAIN.ASM   7-12-2023  18:47:12         PAGE 13


SYMBOL TABLE
  LABEL                             VALUE 

PSTR3CON                          00000316
PWM1CON                           00000294
PWM2CON                           0000029B
PWM3CON                           00000314
RA0                               00000000
RA1                               00000001
RA2                               00000002
RA3                               00000003
RA4                               00000004
RA5                               00000005
RA6                               00000006
RA7                               00000007
RB0                               00000000
RB1                               00000001
RB2                               00000002
RB3                               00000003
RB4                               00000004
RB5                               00000005
RB6                               00000006
RB7                               00000007
RC0                               00000000
RC1                               00000001
RC2                               00000002
RC3                               00000003
RC4                               00000004
RC5                               00000005
RC6                               00000006
RC7                               00000007
RCEN                              00000003
RCIDL                             00000006
RCIE                              00000005
RCIF                              00000005
RCREG                             00000199
RCSTA                             0000019D
RD                                00000000
RE3                               00000003
RSEN                              00000001
RX9                               00000006
RX9D                              00000000
R_NOT_W                           00000002
S                                 00000003
SBCDE                             00000002
SBOREN                            00000007
SCIE                              00000005
SCKP                              00000004
SCS0                              00000000
SCS1                              00000001
SDAHT                             00000003
SE0                               00000000
SE1                               00000001
SE10                              00000002
SE11                              00000003
SE12                              00000004
MPASM 5.77                          MAIN.ASM   7-12-2023  18:47:12         PAGE 14


SYMBOL TABLE
  LABEL                             VALUE 

SE13                              00000005
SE14                              00000006
SE15                              00000007
SE2                               00000002
SE3                               00000003
SE4                               00000004
SE5                               00000005
SE6                               00000006
SE7                               00000007
SE8                               00000000
SE9                               00000001
SEG0COM0                          00000000
SEG0COM1                          00000000
SEG0COM2                          00000000
SEG0COM3                          00000000
SEG10COM0                         00000002
SEG10COM1                         00000002
SEG10COM2                         00000002
SEG10COM3                         00000002
SEG11COM0                         00000003
SEG11COM1                         00000003
SEG11COM2                         00000003
SEG11COM3                         00000003
SEG12COM0                         00000004
SEG12COM1                         00000004
SEG12COM2                         00000004
SEG12COM3                         00000004
SEG13COM0                         00000005
SEG13COM1                         00000005
SEG13COM2                         00000005
SEG13COM3                         00000005
SEG14COM0                         00000006
SEG14COM1                         00000006
SEG14COM2                         00000006
SEG14COM3                         00000006
SEG15COM0                         00000007
SEG15COM1                         00000007
SEG15COM2                         00000007
SEG15COM3                         00000007
SEG1COM0                          00000001
SEG1COM1                          00000001
SEG1COM2                          00000001
SEG1COM3                          00000001
SEG2COM0                          00000002
SEG2COM1                          00000002
SEG2COM2                          00000002
SEG2COM3                          00000002
SEG3COM0                          00000003
SEG3COM1                          00000003
SEG3COM2                          00000003
SEG3COM3                          00000003
SEG4COM0                          00000004
SEG4COM1                          00000004
MPASM 5.77                          MAIN.ASM   7-12-2023  18:47:12         PAGE 15


SYMBOL TABLE
  LABEL                             VALUE 

SEG4COM2                          00000004
SEG4COM3                          00000004
SEG5COM0                          00000005
SEG5COM1                          00000005
SEG5COM2                          00000005
SEG5COM3                          00000005
SEG6COM0                          00000006
SEG6COM1                          00000006
SEG6COM2                          00000006
SEG6COM3                          00000006
SEG7COM0                          00000007
SEG7COM1                          00000007
SEG7COM2                          00000007
SEG7COM3                          00000007
SEG8COM0                          00000000
SEG8COM1                          00000000
SEG8COM2                          00000000
SEG8COM3                          00000000
SEG9COM0                          00000001
SEG9COM1                          00000001
SEG9COM2                          00000001
SEG9COM3                          00000001
SEN                               00000000
SENDB                             00000003
SLPEN                             00000006
SMP                               00000007
SP1BRG                            0000019B
SP1BRGH                           0000019C
SP1BRGL                           0000019B
SPBRG                             0000019B
SPBRGH                            0000019C
SPBRGL                            0000019B
SPEN                              00000007
SPLLEN                            00000007
SRCLK0                            00000004
SRCLK1                            00000005
SRCLK2                            00000006
SRCON0                            0000011A
SRCON1                            0000011B
SREN                              00000005
SRLEN                             00000007
SRNQEN                            00000002
SRNQSEL                           00000003
SRPR                              00000000
SRPS                              00000001
SRQEN                             00000003
SRRC1E                            00000000
SRRC2E                            00000001
SRRCKE                            00000002
SRRPE                             00000003
SRSC1E                            00000004
SRSC2E                            00000005
SRSCKE                            00000006
MPASM 5.77                          MAIN.ASM   7-12-2023  18:47:12         PAGE 16


SYMBOL TABLE
  LABEL                             VALUE 

SRSPE                             00000007
SSPADD                            00000212
SSPBUF                            00000211
SSPCON                            00000215
SSPCON1                           00000215
SSPCON2                           00000216
SSPCON3                           00000217
SSPEN                             00000005
SSPIE                             00000003
SSPIF                             00000003
SSPM0                             00000000
SSPM1                             00000001
SSPM2                             00000002
SSPM3                             00000003
SSPMSK                            00000213
SSPOV                             00000006
SSPSTAT                           00000214
SSSEL                             00000001
STATUS                            00000003
STATUS_SHAD                       00000FE4
STKOVF                            00000007
STKPTR                            00000FED
STKUNF                            00000006
STR1A                             00000000
STR1B                             00000001
STR1C                             00000002
STR1D                             00000003
STR1SYNC                          00000004
STR2A                             00000000
STR2B                             00000001
STR2C                             00000002
STR2D                             00000003
STR2SYNC                          00000004
STR3A                             00000000
STR3B                             00000001
STR3C                             00000002
STR3D                             00000003
STR3SYNC                          00000004
SWDTEN                            00000000
SYNC                              00000004
T0CS                              00000005
T0IE                              00000005
T0IF                              00000002
T0SE                              00000004
T0XCS                             00000000
T1CKPS0                           00000004
T1CKPS1                           00000005
T1CON                             00000018
T1GCON                            00000019
T1GGO                             00000003
T1GGO_NOT_DONE                    00000003
T1GPOL                            00000006
T1GSEL                            00000005
MPASM 5.77                          MAIN.ASM   7-12-2023  18:47:12         PAGE 17


SYMBOL TABLE
  LABEL                             VALUE 

T1GSPM                            00000004
T1GSS0                            00000000
T1GSS1                            00000001
T1GTM                             00000005
T1GVAL                            00000002
T1OSCEN                           00000003
T1OSCR                            00000007
T2CKPS0                           00000000
T2CKPS1                           00000001
T2CON                             0000001C
T2OUTPS0                          00000003
T2OUTPS1                          00000004
T2OUTPS2                          00000005
T2OUTPS3                          00000006
T4CKPS0                           00000000
T4CKPS1                           00000001
T4CON                             00000417
T4OUTPS0                          00000003
T4OUTPS1                          00000004
T4OUTPS2                          00000005
T4OUTPS3                          00000006
T6CKPS0                           00000000
T6CKPS1                           00000001
T6CON                             0000041E
T6OUTPS0                          00000003
T6OUTPS1                          00000004
T6OUTPS2                          00000005
T6OUTPS3                          00000006
TEST                              0000000E
TEST_ANIMATION                    00000020
TMR0                              00000015
TMR0CS                            00000005
TMR0IE                            00000005
TMR0IF                            00000002
TMR0SE                            00000004
TMR1                              00000016
TMR1CS0                           00000006
TMR1CS1                           00000007
TMR1GE                            00000007
TMR1GIE                           00000007
TMR1GIF                           00000007
TMR1H                             00000017
TMR1IE                            00000000
TMR1IF                            00000000
TMR1L                             00000016
TMR1ON                            00000000
TMR2                              0000001A
TMR2IE                            00000001
TMR2IF                            00000001
TMR2ON                            00000002
TMR4                              00000415
TMR4IE                            00000001
TMR4IF                            00000001
MPASM 5.77                          MAIN.ASM   7-12-2023  18:47:12         PAGE 18


SYMBOL TABLE
  LABEL                             VALUE 

TMR4ON                            00000002
TMR6                              0000041C
TMR6IE                            00000003
TMR6IF                            00000003
TMR6ON                            00000002
TOSH                              00000FEF
TOSL                              00000FEE
TRISA                             0000008C
TRISA0                            00000000
TRISA1                            00000001
TRISA2                            00000002
TRISA3                            00000003
TRISA4                            00000004
TRISA5                            00000005
TRISA6                            00000006
TRISA7                            00000007
TRISB                             0000008D
TRISB0                            00000000
TRISB1                            00000001
TRISB2                            00000002
TRISB3                            00000003
TRISB4                            00000004
TRISB5                            00000005
TRISB6                            00000006
TRISB7                            00000007
TRISC                             0000008E
TRISC0                            00000000
TRISC1                            00000001
TRISC2                            00000002
TRISC3                            00000003
TRISC4                            00000004
TRISC5                            00000005
TRISC6                            00000006
TRISC7                            00000007
TRISE                             00000090
TRISE3                            00000003
TRMT                              00000001
TSEN                              00000005
TSRNG                             00000004
TUN0                              00000000
TUN1                              00000001
TUN2                              00000002
TUN3                              00000003
TUN4                              00000004
TUN5                              00000005
TX9                               00000006
TX9D                              00000000
TXEN                              00000005
TXIE                              00000004
TXIF                              00000004
TXREG                             0000019A
TXSTA                             0000019E
UA                                00000001
MPASM 5.77                          MAIN.ASM   7-12-2023  18:47:12         PAGE 19


SYMBOL TABLE
  LABEL                             VALUE 

VLCD1PE                           00000001
VLCD2PE                           00000002
VLCD3PE                           00000003
W                                 00000000
WA                                00000004
WCOL                              00000007
WDTCON                            00000097
WDTPS0                            00000001
WDTPS1                            00000002
WDTPS2                            00000003
WDTPS3                            00000004
WDTPS4                            00000005
WERR                              00000005
WFT                               00000007
WPUB                              0000020D
WPUB0                             00000000
WPUB1                             00000001
WPUB2                             00000002
WPUB3                             00000003
WPUB4                             00000004
WPUB5                             00000005
WPUB6                             00000006
WPUB7                             00000007
WPUE                              00000210
WPUE3                             00000003
WR                                00000001
WREG                              00000009
WREG_SHAD                         00000FE5
WREN                              00000002
WRERR                             00000003
WUE                               00000001
Z                                 00000002
Z_SHAD                            00000002
_BOREN_NSLEEP                     00003DFF
_BOREN_OFF                        000039FF
_BOREN_ON                         00003FFF
_BOREN_SBODEN                     00003BFF
_BORV_19                          00003FFF
_BORV_25                          00003BFF
_BORV_HI                          00003BFF
_BORV_LO                          00003FFF
_CLKOUTEN_OFF                     00003FFF
_CLKOUTEN_ON                      000037FF
_CONFIG1                          00008007
_CONFIG2                          00008008
_CPD_OFF                          00003FFF
_CPD_ON                           00003EFF
_CP_OFF                           00003FFF
_CP_ON                            00003F7F
_DEVID1                           00008006
_FCMEN_OFF                        00001FFF
_FCMEN_ON                         00003FFF
_FOSC_ECH                         00003FFF
MPASM 5.77                          MAIN.ASM   7-12-2023  18:47:12         PAGE 20


SYMBOL TABLE
  LABEL                             VALUE 

_FOSC_ECL                         00003FFD
_FOSC_ECM                         00003FFE
_FOSC_EXTRC                       00003FFB
_FOSC_HS                          00003FFA
_FOSC_INTOSC                      00003FFC
_FOSC_LP                          00003FF8
_FOSC_XT                          00003FF9
_IDLOC0                           00008000
_IDLOC1                           00008001
_IDLOC2                           00008002
_IDLOC3                           00008003
_IESO_OFF                         00002FFF
_IESO_ON                          00003FFF
_LVP_OFF                          00001FFF
_LVP_ON                           00003FFF
_MCLRE_OFF                        00003FBF
_MCLRE_ON                         00003FFF
_PLLEN_OFF                        00003EFF
_PLLEN_ON                         00003FFF
_PWRTE_OFF                        00003FFF
_PWRTE_ON                         00003FDF
_STVREN_OFF                       00003DFF
_STVREN_ON                        00003FFF
_VCAPEN_OFF                       00003FFF
_VCAPEN_RA0                       00003FCF
_VCAPEN_RA5                       00003FDF
_VCAPEN_RA6                       00003FEF
_WDTE_NSLEEP                      00003FF7
_WDTE_OFF                         00003FE7
_WDTE_ON                          00003FFF
_WDTE_SWDTEN                      00003FEF
_WRT_ALL                          00003FFC
_WRT_BOOT                         00003FFE
_WRT_HALF                         00003FFD
_WRT_OFF                          00003FFF
__16F1938                         00000001

Errors   :     0
Warnings :     5 reported,     0 suppressed
Messages :     3 reported,     0 suppressed

